; Function Attrs: mustprogress uwtable
define void @_ZN32pxrInternal_v0_24__pxrReserved__14Hf_PluginEntryC2ERKNS_6TfTypeERKNSt7__cxx1112basic_stringIcSt11char_traitsIcESaIcEEEi(ptr noundef nonnull align 8 dereferenceable(64) %0, ptr nocapture noundef nonnull readonly align 8 dereferenceable(8) %1, ptr noundef nonnull align 8 dereferenceable(32) %2, i32 noundef %3) unnamed_addr #0 align 2 {
  %5 = load i64, ptr %1, align 8
  store i64 %5, ptr %0, align 8
  %6 = getelementptr inbounds nuw i8, ptr %0, i64 8
  tail call void @_ZNSt7__cxx1112basic_stringIcSt11char_traitsIcESaIcEEC1ERKS4_(ptr noundef nonnull align 8 dereferenceable(32) %6, ptr noundef nonnull align 8 dereferenceable(32) %2)
  %7 = getelementptr inbounds nuw i8, ptr %0, i64 40
  store i32 %3, ptr %7, align 8
  %8 = getelementptr inbounds nuw i8, ptr %0, i64 48
  store ptr null, ptr %8, align 8
  %9 = getelementptr inbounds nuw i8, ptr %0, i64 56
  store i32 0, ptr %9, align 8
  ret void
}